; Function Attrs: nounwind uwtable
define hidden void @_PyEval_ReInitThreads(ptr dead_on_unwind noalias writable writeonly sret(%struct.PyStatus) align 8 captures(none) initializes((0, 32)) %0, ptr noundef %1) local_unnamed_addr #4 {
  %3 = getelementptr inbounds nuw i8, ptr %1, i64 16
  %4 = load ptr, ptr %3, align 8, !tbaa !9
  %5 = getelementptr inbounds nuw i8, ptr %4, i64 16
  %6 = load ptr, ptr %5, align 8, !tbaa !21
  %7 = icmp eq ptr %6, null
  br i1 %7, label %gil_created.exit.thread, label %gil_created.exit

gil_created.exit:                                 ; preds = %2
  %8 = getelementptr inbounds nuw i8, ptr %6, i64 16
  %9 = load atomic i32, ptr %8 acquire, align 4
  %10 = icmp slt i32 %9, 0
  br i1 %10, label %gil_created.exit.thread, label %11

11:                                               ; preds = %gil_created.exit
  tail call fastcc void @create_gil(ptr noundef nonnull %6)
  tail call fastcc void @take_gil(ptr noundef nonnull %1)
  %12 = load ptr, ptr %3, align 8, !tbaa !9
  %13 = getelementptr inbounds nuw i8, ptr %12, i64 40
  store i8 0, ptr %13, align 1
  br label %gil_created.exit.thread

gil_created.exit.thread:                          ; preds = %gil_created.exit, %2, %11
  tail call void @llvm.memset.p0.i64(ptr noundef nonnull align 8 dereferenceable(32) %0, i8 0, i64 32, i1 false)
  store i32 0, ptr %0, align 8, !tbaa !186
  ret void
}